target datalayout = "e-m:e-p270:32:32-p271:32:32-p272:64:64-i64:64-i128:128-f80:128-n8:16:32:64-S128"
target triple = "x86_64-pc-linux-gnu"

%struct.procfs_level0_s = type { %struct.procfs_dir_priv_s, i8, [128 x i32], ptr }
%struct.procfs_dir_priv_s = type { %struct.fs_dirent_s, i8, i16, i16, ptr }
%struct.fs_dirent_s = type { ptr, ptr }
%struct.tcb_s = type { ptr, ptr, ptr, i32, i8, i8, ptr, %union.entry_u, i8, i8, i8, ptr, i16, i16, i16, %struct.wdog_s, i64, ptr, ptr, ptr, %struct.sigset_s, %struct.sigset_s, %struct.sq_queue_s, %struct.sq_queue_s, %struct.siginfo, ptr, %struct.xcptcontext, [32 x i8] }
%union.entry_u = type { ptr }
%struct.wdog_s = type { ptr, i64, ptr, i64 }
%struct.sigset_s = type { [2 x i32] }
%struct.sq_queue_s = type { ptr, ptr }
%struct.siginfo = type { i8, i8, i8, %union.sigval, i32, i32, ptr }
%union.sigval = type { ptr }
%struct.xcptcontext = type { ptr, i64, i64, i64, [90 x i64] }

; Function Attrs: nounwind uwtable
define internal void @procfs_enum(ptr noundef %0, ptr noundef %1) #0 {
  %3 = alloca ptr, align 8
  %4 = alloca ptr, align 8
  %5 = alloca ptr, align 8
  %6 = alloca i32, align 4
  store ptr %0, ptr %3, align 8
  store ptr %1, ptr %4, align 8
  %7 = load ptr, ptr %4, align 8
  store ptr %7, ptr %5, align 8
  %8 = load ptr, ptr %5, align 8
  %9 = getelementptr inbounds %struct.procfs_level0_s, ptr %8, i32 0, i32 0
  %10 = getelementptr inbounds %struct.procfs_dir_priv_s, ptr %9, i32 0, i32 3
  %11 = load i16, ptr %10, align 4
  %12 = zext i16 %11 to i32
  store i32 %12, ptr %6, align 4
  %13 = load i32, ptr %6, align 4
  %14 = icmp sge i32 %13, 128
  br i1 %14, label %15, label %16

15:                                               ; preds = %2
  br label %31

16:                                               ; preds = %2
  %17 = load ptr, ptr %3, align 8
  %18 = getelementptr inbounds %struct.tcb_s, ptr %17, i32 0, i32 3
  %19 = load i32, ptr %18, align 8
  %20 = load ptr, ptr %5, align 8
  %21 = getelementptr inbounds %struct.procfs_level0_s, ptr %20, i32 0, i32 2
  %22 = load i32, ptr %6, align 4
  %23 = sext i32 %22 to i64
  %24 = getelementptr inbounds [128 x i32], ptr %21, i64 0, i64 %23
  store i32 %19, ptr %24, align 4
  %25 = load i32, ptr %6, align 4
  %26 = add nsw i32 %25, 1
  %27 = trunc i32 %26 to i16
  %28 = load ptr, ptr %5, align 8
  %29 = getelementptr inbounds %struct.procfs_level0_s, ptr %28, i32 0, i32 0
  %30 = getelementptr inbounds %struct.procfs_dir_priv_s, ptr %29, i32 0, i32 3
  store i16 %27, ptr %30, align 4
  br label %31

31:                                               ; preds = %16, %15
  ret void
}