; Function Attrs: mustprogress nofree norecurse nosync nounwind willreturn memory(argmem: readwrite) uwtable
define internal void @procfs_enum(ptr noundef readonly captures(none) %0, ptr noundef captures(none) %1) #4 {
  %3 = getelementptr inbounds nuw i8, ptr %1, i64 20
  %4 = load i16, ptr %3, align 4
  %5 = icmp ugt i16 %4, 127
  br i1 %5, label %12, label %6

6:                                                ; preds = %2
  %7 = getelementptr inbounds nuw i8, ptr %0, i64 24
  %8 = load i32, ptr %7, align 8
  %9 = getelementptr inbounds nuw i8, ptr %1, i64 36
  %10 = zext nneg i16 %4 to i64
  %11 = getelementptr inbounds nuw [128 x i32], ptr %9, i64 0, i64 %10
  store i32 %8, ptr %11, align 4
  %narrow = add nuw nsw i16 %4, 1
  store i16 %narrow, ptr %3, align 4
  br label %12

12:                                               ; preds = %2, %6
  ret void
}